target datalayout = "e-m:e-p270:32:32-p271:32:32-p272:64:64-i64:64-i128:128-f80:128-n8:16:32:64-S128"
target triple = "x86_64-unknown-linux-gnu"

%"class.std::_Function_base" = type { %"union.std::_Any_data", ptr }
%"union.std::_Any_data" = type { %"union.std::_Nocopy_types" }
%"union.std::_Nocopy_types" = type { { i64, i64 } }
%struct.iovec = type { ptr, i64 }
%"class.std::function.71" = type { %"class.std::_Function_base", ptr }
%"struct.rocksdb::Posix_IOHandle" = type { %struct.iovec, ptr, %"class.std::function.71", ptr, i64, i64, ptr, i8, i64, i8, i32 }

; Function Attrs: mustprogress nounwind uwtable
define linkonce_odr void @_ZNSt14_Function_baseD2Ev(ptr noundef nonnull align 8 dereferenceable(24) %this) unnamed_addr #3 comdat align 2 personality ptr @__gxx_personality_v0 {
entry:
  %this.addr = alloca ptr, align 8
  store ptr %this, ptr %this.addr, align 8
  %this1 = load ptr, ptr %this.addr, align 8
  %_M_manager = getelementptr inbounds %"class.std::_Function_base", ptr %this1, i32 0, i32 1
  %0 = load ptr, ptr %_M_manager, align 8
  %tobool = icmp ne ptr %0, null
  br i1 %tobool, label %if.then, label %if.end

if.then:                                          ; preds = %entry
  %_M_manager2 = getelementptr inbounds %"class.std::_Function_base", ptr %this1, i32 0, i32 1
  %1 = load ptr, ptr %_M_manager2, align 8
  %_M_functor = getelementptr inbounds %"class.std::_Function_base", ptr %this1, i32 0, i32 0
  %_M_functor3 = getelementptr inbounds %"class.std::_Function_base", ptr %this1, i32 0, i32 0
  %call = invoke noundef zeroext i1 %1(ptr noundef nonnull align 8 dereferenceable(16) %_M_functor, ptr noundef nonnull align 8 dereferenceable(16) %_M_functor3, i32 noundef 3)
          to label %invoke.cont unwind label %terminate.lpad

invoke.cont:                                      ; preds = %if.then
  br label %if.end

if.end:                                           ; preds = %invoke.cont, %entry
  ret void

terminate.lpad:                                   ; preds = %if.then
  %2 = landingpad { ptr, i32 }
          catch ptr null
  %3 = extractvalue { ptr, i32 } %2, 0
  call void @__clang_call_terminate(ptr %3) #17
  unreachable
}

; Function Attrs: mustprogress nounwind uwtable
define linkonce_odr void @_ZNSt8functionIFvRKN7rocksdb13FSReadRequestEPvEED2Ev(ptr noundef nonnull align 8 dereferenceable(32) %this) unnamed_addr #3 comdat align 2 {
entry:
  %this.addr = alloca ptr, align 8
  store ptr %this, ptr %this.addr, align 8
  %this1 = load ptr, ptr %this.addr, align 8
  call void @_ZNSt14_Function_baseD2Ev(ptr noundef nonnull align 8 dereferenceable(24) %this1) #15
  ret void
}

; Function Attrs: mustprogress nounwind uwtable
define linkonce_odr void @_ZN7rocksdb14Posix_IOHandleD2Ev(ptr noundef nonnull align 8 dereferenceable(112) %this) unnamed_addr #3 comdat align 2 {
entry:
  %this.addr = alloca ptr, align 8
  store ptr %this, ptr %this.addr, align 8
  %this1 = load ptr, ptr %this.addr, align 8
  %cb = getelementptr inbounds %"struct.rocksdb::Posix_IOHandle", ptr %this1, i32 0, i32 2
  call void @_ZNSt8functionIFvRKN7rocksdb13FSReadRequestEPvEED2Ev(ptr noundef nonnull align 8 dereferenceable(32) %cb) #15
  ret void
}

; Function Attrs: mustprogress nounwind uwtable
define internal void @"_ZZN7rocksdb21PosixRandomAccessFile9ReadAsyncERNS_13FSReadRequestERKNS_9IOOptionsESt8functionIFvRKS1_PvEES9_PS9_PS6_IFvS9_EEPNS_14IODebugContextEENK3$_0clES9_"(ptr noundef nonnull align 1 dereferenceable(1) %this, ptr noundef %args) #3 align 2 {
entry:
  %this.addr = alloca ptr, align 8
  %args.addr = alloca ptr, align 8
  store ptr %this, ptr %this.addr, align 8
  store ptr %args, ptr %args.addr, align 8
  %0 = load ptr, ptr %args.addr, align 8
  %isnull = icmp eq ptr %0, null
  br i1 %isnull, label %delete.end, label %delete.notnull

delete.notnull:                                   ; preds = %entry
  call void @_ZN7rocksdb14Posix_IOHandleD2Ev(ptr noundef nonnull align 8 dereferenceable(112) %0) #15
  call void @_ZdlPv(ptr noundef %0) #18
  br label %delete.end

delete.end:                                       ; preds = %delete.notnull, %entry
  store ptr null, ptr %args.addr, align 8
  ret void
}

; Function Attrs: mustprogress nounwind uwtable
define linkonce_odr noundef ptr @_ZNKSt9_Any_data9_M_accessEv(ptr noundef nonnull align 8 dereferenceable(16) %this) #3 comdat align 2 {
entry:
  %this.addr = alloca ptr, align 8
  store ptr %this, ptr %this.addr, align 8
  %this1 = load ptr, ptr %this.addr, align 8
  %arrayidx = getelementptr inbounds [16 x i8], ptr %this1, i64 0, i64 0
  ret ptr %arrayidx
}

; Function Attrs: mustprogress uwtable
define internal void @"_ZSt13__invoke_implIvRZN7rocksdb21PosixRandomAccessFile9ReadAsyncERNS0_13FSReadRequestERKNS0_9IOOptionsESt8functionIFvRKS2_PvEESA_PSA_PS7_IFvSA_EEPNS0_14IODebugContextEE3$_0JSA_EET_St14__invoke_otherOT0_DpOT1_"(ptr noundef nonnull align 1 dereferenceable(1) %__f, ptr noundef nonnull align 8 dereferenceable(8) %__args) #0 {
entry:
  %__f.addr = alloca ptr, align 8
  %__args.addr = alloca ptr, align 8
  store ptr %__f, ptr %__f.addr, align 8
  store ptr %__args, ptr %__args.addr, align 8
  %0 = load ptr, ptr %__f.addr, align 8
  %1 = load ptr, ptr %__args.addr, align 8
  %2 = load ptr, ptr %1, align 8
  call void @"_ZZN7rocksdb21PosixRandomAccessFile9ReadAsyncERNS_13FSReadRequestERKNS_9IOOptionsESt8functionIFvRKS1_PvEES9_PS9_PS6_IFvS9_EEPNS_14IODebugContextEENK3$_0clES9_"(ptr noundef nonnull align 1 dereferenceable(1) %0, ptr noundef %2)
  ret void
}

; Function Attrs: mustprogress nounwind uwtable
define internal noundef nonnull align 1 dereferenceable(1) ptr @"_ZNKSt9_Any_data9_M_accessIZN7rocksdb21PosixRandomAccessFile9ReadAsyncERNS1_13FSReadRequestERKNS1_9IOOptionsESt8functionIFvRKS3_PvEESB_PSB_PS8_IFvSB_EEPNS1_14IODebugContextEE3$_0EERKT_v"(ptr noundef nonnull align 8 dereferenceable(16) %this) #3 align 2 {
entry:
  %this.addr = alloca ptr, align 8
  store ptr %this, ptr %this.addr, align 8
  %this1 = load ptr, ptr %this.addr, align 8
  %call = call noundef ptr @_ZNKSt9_Any_data9_M_accessEv(ptr noundef nonnull align 8 dereferenceable(16) %this1) #15
  ret ptr %call
}

; Function Attrs: mustprogress uwtable
define internal void @"_ZSt10__invoke_rIvRZN7rocksdb21PosixRandomAccessFile9ReadAsyncERNS0_13FSReadRequestERKNS0_9IOOptionsESt8functionIFvRKS2_PvEESA_PSA_PS7_IFvSA_EEPNS0_14IODebugContextEE3$_0JSA_EENSt9enable_ifIX16is_invocable_r_vIT_T0_DpT1_EESM_E4typeEOSN_DpOSO_"(ptr noundef nonnull align 1 dereferenceable(1) %__fn, ptr noundef nonnull align 8 dereferenceable(8) %__args) #0 {
entry:
  %__fn.addr = alloca ptr, align 8
  %__args.addr = alloca ptr, align 8
  store ptr %__fn, ptr %__fn.addr, align 8
  store ptr %__args, ptr %__args.addr, align 8
  %0 = load ptr, ptr %__fn.addr, align 8
  %1 = load ptr, ptr %__args.addr, align 8
  call void @"_ZSt13__invoke_implIvRZN7rocksdb21PosixRandomAccessFile9ReadAsyncERNS0_13FSReadRequestERKNS0_9IOOptionsESt8functionIFvRKS2_PvEESA_PSA_PS7_IFvSA_EEPNS0_14IODebugContextEE3$_0JSA_EET_St14__invoke_otherOT0_DpOT1_"(ptr noundef nonnull align 1 dereferenceable(1) %0, ptr noundef nonnull align 8 dereferenceable(8) %1)
  ret void
}

; Function Attrs: mustprogress nounwind uwtable
define internal noundef ptr @"_ZNSt14_Function_base13_Base_managerIZN7rocksdb21PosixRandomAccessFile9ReadAsyncERNS1_13FSReadRequestERKNS1_9IOOptionsESt8functionIFvRKS3_PvEESB_PSB_PS8_IFvSB_EEPNS1_14IODebugContextEE3$_0E14_M_get_pointerERKSt9_Any_data"(ptr noundef nonnull align 8 dereferenceable(16) %__source) #3 align 2 {
entry:
  %__source.addr = alloca ptr, align 8
  %__f = alloca ptr, align 8
  store ptr %__source, ptr %__source.addr, align 8
  %0 = load ptr, ptr %__source.addr, align 8
  %call = call noundef nonnull align 1 dereferenceable(1) ptr @"_ZNKSt9_Any_data9_M_accessIZN7rocksdb21PosixRandomAccessFile9ReadAsyncERNS1_13FSReadRequestERKNS1_9IOOptionsESt8functionIFvRKS3_PvEESB_PSB_PS8_IFvSB_EEPNS1_14IODebugContextEE3$_0EERKT_v"(ptr noundef nonnull align 8 dereferenceable(16) %0) #15
  store ptr %call, ptr %__f, align 8
  %1 = load ptr, ptr %__f, align 8
  ret ptr %1
}

; Function Attrs: mustprogress uwtable
define internal void @"_ZNSt17_Function_handlerIFvPvEZN7rocksdb21PosixRandomAccessFile9ReadAsyncERNS2_13FSReadRequestERKNS2_9IOOptionsESt8functionIFvRKS4_S0_EES0_PS0_PS9_IS1_EPNS2_14IODebugContextEE3$_0E9_M_invokeERKSt9_Any_dataOS0_"(ptr noundef nonnull align 8 dereferenceable(16) %__functor, ptr noundef nonnull align 8 dereferenceable(8) %__args) #0 align 2 {
entry:
  %__functor.addr = alloca ptr, align 8
  %__args.addr = alloca ptr, align 8
  store ptr %__functor, ptr %__functor.addr, align 8
  store ptr %__args, ptr %__args.addr, align 8
  %0 = load ptr, ptr %__functor.addr, align 8
  %call = call noundef ptr @"_ZNSt14_Function_base13_Base_managerIZN7rocksdb21PosixRandomAccessFile9ReadAsyncERNS1_13FSReadRequestERKNS1_9IOOptionsESt8functionIFvRKS3_PvEESB_PSB_PS8_IFvSB_EEPNS1_14IODebugContextEE3$_0E14_M_get_pointerERKSt9_Any_data"(ptr noundef nonnull align 8 dereferenceable(16) %0) #15
  %1 = load ptr, ptr %__args.addr, align 8
  call void @"_ZSt10__invoke_rIvRZN7rocksdb21PosixRandomAccessFile9ReadAsyncERNS0_13FSReadRequestERKNS0_9IOOptionsESt8functionIFvRKS2_PvEESA_PSA_PS7_IFvSA_EEPNS0_14IODebugContextEE3$_0JSA_EENSt9enable_ifIX16is_invocable_r_vIT_T0_DpT1_EESM_E4typeEOSN_DpOSO_"(ptr noundef nonnull align 1 dereferenceable(1) %call, ptr noundef nonnull align 8 dereferenceable(8) %1)
  ret void
}