; Function Attrs: mustprogress uwtable
define internal void @"_ZNSt17_Function_handlerIFvPvEZN7rocksdb21PosixRandomAccessFile9ReadAsyncERNS2_13FSReadRequestERKNS2_9IOOptionsESt8functionIFvRKS4_S0_EES0_PS0_PS9_IS1_EPNS2_14IODebugContextEE3$_0E9_M_invokeERKSt9_Any_dataOS0_"(ptr nocapture nonnull readnone align 8 %__functor, ptr nocapture noundef nonnull readonly align 8 dereferenceable(8) %__args) #0 align 2 personality ptr @__gxx_personality_v0 {
entry:
  %__args.val = load ptr, ptr %__args, align 8
  %isnull.i.i.i = icmp eq ptr %__args.val, null
  br i1 %isnull.i.i.i, label %"_ZSt10__invoke_rIvRZN7rocksdb21PosixRandomAccessFile9ReadAsyncERNS0_13FSReadRequestERKNS0_9IOOptionsESt8functionIFvRKS2_PvEESA_PSA_PS7_IFvSA_EEPNS0_14IODebugContextEE3$_0JSA_EENSt9enable_ifIX16is_invocable_r_vIT_T0_DpT1_EESM_E4typeEOSN_DpOSO_.exit", label %delete.notnull.i.i.i

delete.notnull.i.i.i:                             ; preds = %entry
  %_M_manager.i.i.i.i.i.i = getelementptr inbounds i8, ptr %__args.val, i64 40
  %0 = load ptr, ptr %_M_manager.i.i.i.i.i.i, align 8
  %tobool.not.i.i.i.i.i.i = icmp eq ptr %0, null
  br i1 %tobool.not.i.i.i.i.i.i, label %_ZN7rocksdb14Posix_IOHandleD2Ev.exit.i.i.i, label %if.then.i.i.i.i.i.i

if.then.i.i.i.i.i.i:                              ; preds = %delete.notnull.i.i.i
  %cb.i.i.i.i = getelementptr inbounds i8, ptr %__args.val, i64 24
  %call.i.i.i.i.i.i = invoke noundef zeroext i1 %0(ptr noundef nonnull align 8 dereferenceable(16) %cb.i.i.i.i, ptr noundef nonnull align 8 dereferenceable(16) %cb.i.i.i.i, i32 noundef 3)
          to label %_ZN7rocksdb14Posix_IOHandleD2Ev.exit.i.i.i unwind label %terminate.lpad.i.i.i.i.i.i

terminate.lpad.i.i.i.i.i.i:                       ; preds = %if.then.i.i.i.i.i.i
  %1 = landingpad { ptr, i32 }
          catch ptr null
  %2 = extractvalue { ptr, i32 } %1, 0
  tail call void @__clang_call_terminate(ptr %2) #28
  unreachable

_ZN7rocksdb14Posix_IOHandleD2Ev.exit.i.i.i:       ; preds = %if.then.i.i.i.i.i.i, %delete.notnull.i.i.i
  tail call void @_ZdlPv(ptr noundef nonnull %__args.val) #29
  br label %"_ZSt10__invoke_rIvRZN7rocksdb21PosixRandomAccessFile9ReadAsyncERNS0_13FSReadRequestERKNS0_9IOOptionsESt8functionIFvRKS2_PvEESA_PSA_PS7_IFvSA_EEPNS0_14IODebugContextEE3$_0JSA_EENSt9enable_ifIX16is_invocable_r_vIT_T0_DpT1_EESM_E4typeEOSN_DpOSO_.exit"

"_ZSt10__invoke_rIvRZN7rocksdb21PosixRandomAccessFile9ReadAsyncERNS0_13FSReadRequestERKNS0_9IOOptionsESt8functionIFvRKS2_PvEESA_PSA_PS7_IFvSA_EEPNS0_14IODebugContextEE3$_0JSA_EENSt9enable_ifIX16is_invocable_r_vIT_T0_DpT1_EESM_E4typeEOSN_DpOSO_.exit": ; preds = %entry, %_ZN7rocksdb14Posix_IOHandleD2Ev.exit.i.i.i
  ret void
}